; Function Attrs: mustprogress uwtable
define void @_ZNK19MeshLabPluginLogger11realTimeLogE7QStringRKS0_PKc(ptr nocapture noundef nonnull readonly align 8 dereferenceable(16) %0, ptr noundef %1, ptr noundef nonnull align 8 dereferenceable(8) %2, ptr noundef %3) local_unnamed_addr #6 align 2 personality ptr @__gxx_personality_v0 {
  %5 = alloca %class.QString, align 8
  %6 = getelementptr inbounds i8, ptr %0, i64 8
  %7 = load ptr, ptr %6, align 8
  %.not = icmp eq ptr %7, null
  br i1 %.not, label %_ZN7QStringD2Ev.exit, label %8

8:                                                ; preds = %4
  %.not.i = icmp eq ptr %3, null
  br i1 %.not.i, label %_ZN7QStringC2EPKc.exit, label %9

9:                                                ; preds = %8
  %10 = tail call i64 @strlen(ptr noundef nonnull dereferenceable(1) %3) #10
  %11 = trunc i64 %10 to i32
  br label %_ZN7QStringC2EPKc.exit

_ZN7QStringC2EPKc.exit:                           ; preds = %8, %9
  %12 = phi i32 [ %11, %9 ], [ -1, %8 ]
  %13 = tail call noundef ptr @_ZN7QString16fromAscii_helperEPKci(ptr noundef %3, i32 noundef %12)
  store ptr %13, ptr %5, align 8
  invoke void @_ZN11GLLogStream11realTimeLogERK7QStringS2_S2_(ptr noundef nonnull align 8 dereferenceable(40) %7, ptr noundef nonnull align 8 dereferenceable(8) %1, ptr noundef nonnull align 8 dereferenceable(8) %2, ptr noundef nonnull align 8 dereferenceable(8) %5)
          to label %14 unwind label %19

14:                                               ; preds = %_ZN7QStringC2EPKc.exit
  %15 = load ptr, ptr %5, align 8
  %16 = load atomic i32, ptr %15 monotonic, align 4
  switch i32 %16, label %_ZN9QtPrivate8RefCount5derefEv.exit.i [
    i32 0, label %_ZN9QtPrivate8RefCount5derefEv.exit.thread2.i
    i32 -1, label %_ZN7QStringD2Ev.exit
  ]

_ZN9QtPrivate8RefCount5derefEv.exit.i:            ; preds = %14
  %17 = atomicrmw sub ptr %15, i32 1 seq_cst, align 4
  %.not.i4 = icmp eq i32 %17, 1
  br i1 %.not.i4, label %_ZN9QtPrivate8RefCount5derefEv.exit._ZN9QtPrivate8RefCount5derefEv.exit.thread2_crit_edge.i, label %_ZN7QStringD2Ev.exit

_ZN9QtPrivate8RefCount5derefEv.exit._ZN9QtPrivate8RefCount5derefEv.exit.thread2_crit_edge.i: ; preds = %_ZN9QtPrivate8RefCount5derefEv.exit.i
  %.pre.i = load ptr, ptr %5, align 8
  br label %_ZN9QtPrivate8RefCount5derefEv.exit.thread2.i

_ZN9QtPrivate8RefCount5derefEv.exit.thread2.i:    ; preds = %_ZN9QtPrivate8RefCount5derefEv.exit._ZN9QtPrivate8RefCount5derefEv.exit.thread2_crit_edge.i, %14
  %18 = phi ptr [ %.pre.i, %_ZN9QtPrivate8RefCount5derefEv.exit._ZN9QtPrivate8RefCount5derefEv.exit.thread2_crit_edge.i ], [ %15, %14 ]
  call void @_ZN10QArrayData10deallocateEPS_mm(ptr noundef %18, i64 noundef 2, i64 noundef 8) #11
  br label %_ZN7QStringD2Ev.exit

19:                                               ; preds = %_ZN7QStringC2EPKc.exit
  %20 = landingpad { ptr, i32 }
          cleanup
  call void @_ZN7QStringD2Ev(ptr noundef nonnull align 8 dereferenceable(8) %5) #11
  resume { ptr, i32 } %20

_ZN7QStringD2Ev.exit:                             ; preds = %_ZN9QtPrivate8RefCount5derefEv.exit.thread2.i, %_ZN9QtPrivate8RefCount5derefEv.exit.i, %14, %4
  ret void
}